target datalayout = "e-m:e-p270:32:32-p271:32:32-p272:64:64-i64:64-i128:128-f80:128-n8:16:32:64-S128"
target triple = "x86_64-pc-linux-gnu"

%class.MallocLimitSet = type { %struct.malloclimit, [28 x %struct.malloclimit] }
%struct.malloclimit = type { i64, i32 }

@_ZN18MallocLimitHandler7_limitsE = hidden global %class.MallocLimitSet zeroinitializer, align 8
@_ZN18MallocLimitHandler11_have_limitE = hidden global i8 0, align 1
@.str.15 = private unnamed_addr constant [28 x i8] c"Failed to parse MallocLimit\00", align 1

; Function Attrs: mustprogress nounwind uwtable
define hidden void @_ZN18MallocLimitHandler10initializeEPKc(ptr noundef %0) #1 align 2 {
  %2 = alloca ptr, align 8
  %3 = alloca ptr, align 8
  store ptr %0, ptr %2, align 8
  store i8 0, ptr @_ZN18MallocLimitHandler11_have_limitE, align 1
  %4 = load ptr, ptr %2, align 8
  %5 = icmp ne ptr %4, null
  br i1 %5, label %6, label %18

6:                                                ; preds = %1
  %7 = load ptr, ptr %2, align 8
  %8 = getelementptr inbounds i8, ptr %7, i64 0
  %9 = load i8, ptr %8, align 1
  %10 = sext i8 %9 to i32
  %11 = icmp ne i32 %10, 0
  br i1 %11, label %12, label %18

12:                                               ; preds = %6
  store ptr null, ptr %3, align 8
  %13 = load ptr, ptr %2, align 8
  %14 = call noundef zeroext i1 @_ZN14MallocLimitSet24parse_malloclimit_optionEPKcPS1_(ptr noundef nonnull align 8 dereferenceable(464) @_ZN18MallocLimitHandler7_limitsE, ptr noundef %13, ptr noundef %3)
  br i1 %14, label %17, label %15

15:                                               ; preds = %12
  %16 = load ptr, ptr %3, align 8
  call void @_Z29vm_exit_during_initializationPKcS0_(ptr noundef @.str.15, ptr noundef %16)
  br label %17

17:                                               ; preds = %15, %12
  store i8 1, ptr @_ZN18MallocLimitHandler11_have_limitE, align 1
  br label %18

18:                                               ; preds = %17, %6, %1
  ret void
}