; Function Attrs: mustprogress nounwind uwtable
define hidden void @_ZN18MallocLimitHandler10initializeEPKc(ptr noundef %0) local_unnamed_addr #2 align 2 {
  %2 = alloca ptr, align 8
  store i8 0, ptr @_ZN18MallocLimitHandler11_have_limitE, align 1
  %.not = icmp eq ptr %0, null
  br i1 %.not, label %10, label %3

3:                                                ; preds = %1
  %4 = load i8, ptr %0, align 1
  %.not3 = icmp eq i8 %4, 0
  br i1 %.not3, label %10, label %5

5:                                                ; preds = %3
  store ptr null, ptr %2, align 8
  %6 = call noundef zeroext i1 @_ZN14MallocLimitSet24parse_malloclimit_optionEPKcPS1_(ptr noundef nonnull align 8 dereferenceable(464) @_ZN18MallocLimitHandler7_limitsE, ptr noundef nonnull %0, ptr noundef nonnull %2)
  br i1 %6, label %9, label %7

7:                                                ; preds = %5
  %8 = load ptr, ptr %2, align 8
  tail call void @_Z29vm_exit_during_initializationPKcS0_(ptr noundef nonnull @.str.15, ptr noundef %8) #14
  br label %9

9:                                                ; preds = %7, %5
  store i8 1, ptr @_ZN18MallocLimitHandler11_have_limitE, align 1
  br label %10

10:                                               ; preds = %9, %3, %1
  ret void
}